(lp0
(S'cppflags'
p1
ccopy_reg
_reconstructor
p2
(cino.utils
SpaceList
p3
c__builtin__
list
p4
(lp5
S'-mmcu=atmega328p'
p6
aS'-DF_CPU=16000000L'
p7
aS'-DARDUINO=103'
p8
aS'-I/usr/share/arduino/hardware/arduino/cores/arduino'
p9
aS'-ffunction-sections'
p10
aS'-fdata-sections'
p11
aS'-g'
p12
aS'-Os'
p13
aS'-w'
p14
aS'-I/usr/share/arduino/hardware/arduino/variants/standard'
p15
aS'-I/usr/share/arduino/hardware/arduino/cores/arduino'
p16
atp17
Rp18
tp19
a(S'version.txt'
p20
S'/usr/share/arduino/lib/version.txt'
p21
tp22
a(S'arduino_variants_dir'
p23
S'/usr/share/arduino/hardware/arduino/variants'
p24
tp25
a(S'cxx'
p26
S'/usr/bin/avr-g++'
p27
tp28
a(S'make'
p29
S'/usr/bin/make'
p30
tp31
a(S'used_libs'
p32
(lp33
S'/usr/share/arduino/hardware/arduino/cores/arduino'
p34
atp35
a(S'build_dir'
p36
S'.build/uno'
p37
tp38
a(S'arduino_core_dir'
p39
g34
tp40
a(S'boards.txt'
p41
S'/usr/share/arduino/hardware/arduino/boards.txt'
p42
tp43
a(S'cxxflags'
p44
g2
(g3
g4
(lp45
S'-fno-exceptions'
p46
atp47
Rp48
tp49
a(S'cc'
p50
S'/usr/bin/avr-gcc'
p51
tp52
a(S'deps'
p53
g2
(g3
g4
(lp54
S'.build/uno/src/dependencies.d'
p55
aS'.build/uno/arduino/dependencies.d'
p56
atp57
Rp58
tp59
a(S'ar'
p60
S'/usr/bin/avr-ar'
p61
tp62
a(S'names'
p63
(dp64
S'cpp'
p65
S'%s.cpp'
p66
sS'obj'
p67
S'%s.o'
p68
sS'deps'
p69
S'%s.d'
p70
sS'lib'
p71
S'lib%s.a'
p72
stp73
a(S'cflags'
p74
g2
(g3
g4
(lp75
tp76
Rp77
tp78
a(S'arduino_libraries_dir'
p79
S'/usr/share/arduino/libraries'
p80
tp81
a(S'arduino_lib_version'
p82
g2
(cino.environment
Version
p83
c__builtin__
tuple
p84
(I1
I0
I3
tp85
tp86
Rp87
tp88
a(S'objcopy'
p89
S'/usr/bin/avr-objcopy'
p90
tp91
a(S'board_models'
p92
cino.environment
BoardModels
p93
((lp94
(lp95
S'uno'
p96
a(dp97
S'bootloader'
p98
(dp99
S'extended_fuses'
p100
S'0x05'
p101
sS'high_fuses'
p102
S'0xde'
p103
sS'low_fuses'
p104
S'0xff'
p105
sS'lock_bits'
p106
S'0x0F'
p107
sS'file'
p108
S'optiboot_atmega328.hex'
p109
sS'path'
p110
S'optiboot'
p111
sS'unlock_bits'
p112
S'0x3F'
p113
ssS'upload'
p114
(dp115
S'speed'
p116
S'115200'
p117
sS'maximum_size'
p118
S'32256'
p119
sS'protocol'
p120
S'arduino'
p121
ssS'name'
p122
S'Arduino Uno'
p123
sS'build'
p124
(dp125
S'core'
p126
S'arduino'
p127
sS'mcu'
p128
S'atmega328p'
p129
sS'f_cpu'
p130
S'16000000L'
p131
sS'variant'
p132
S'standard'
p133
ssaa(lp134
S'atmega328'
p135
a(dp136
S'bootloader'
p137
(dp138
S'extended_fuses'
p139
S'0x05'
p140
sS'high_fuses'
p141
S'0xDA'
p142
sS'low_fuses'
p143
S'0xFF'
p144
sS'lock_bits'
p145
S'0x0F'
p146
sS'file'
p147
S'ATmegaBOOT_168_atmega328.hex'
p148
sS'path'
p149
S'atmega'
p150
sS'unlock_bits'
p151
S'0x3F'
p152
ssS'upload'
p153
(dp154
S'speed'
p155
S'57600'
p156
sS'maximum_size'
p157
S'30720'
p158
sS'protocol'
p159
S'arduino'
p160
ssS'name'
p161
S'Arduino Duemilanove w/ ATmega328'
p162
sS'build'
p163
(dp164
S'core'
p165
S'arduino'
p166
sS'mcu'
p167
S'atmega328p'
p168
sS'f_cpu'
p169
S'16000000L'
p170
sS'variant'
p171
S'standard'
p172
ssaa(lp173
S'diecimila'
p174
a(dp175
S'bootloader'
p176
(dp177
S'extended_fuses'
p178
S'0x00'
p179
sS'high_fuses'
p180
S'0xdd'
p181
sS'low_fuses'
p182
S'0xff'
p183
sS'lock_bits'
p184
S'0x0F'
p185
sS'file'
p186
S'ATmegaBOOT_168_diecimila.hex'
p187
sS'path'
p188
S'atmega'
p189
sS'unlock_bits'
p190
S'0x3F'
p191
ssS'upload'
p192
(dp193
S'speed'
p194
S'19200'
p195
sS'maximum_size'
p196
S'14336'
p197
sS'protocol'
p198
S'arduino'
p199
ssS'name'
p200
S'Arduino Diecimila or Duemilanove w/ ATmega168'
p201
sS'build'
p202
(dp203
S'core'
p204
S'arduino'
p205
sS'mcu'
p206
S'atmega168'
p207
sS'f_cpu'
p208
S'16000000L'
p209
sS'variant'
p210
S'standard'
p211
ssaa(lp212
S'nano328'
p213
a(dp214
S'bootloader'
p215
(dp216
S'extended_fuses'
p217
S'0x05'
p218
sS'high_fuses'
p219
S'0xDA'
p220
sS'low_fuses'
p221
S'0xFF'
p222
sS'lock_bits'
p223
S'0x0F'
p224
sS'file'
p225
S'ATmegaBOOT_168_atmega328.hex'
p226
sS'path'
p227
S'atmega'
p228
sS'unlock_bits'
p229
S'0x3F'
p230
ssS'upload'
p231
(dp232
S'speed'
p233
S'57600'
p234
sS'maximum_size'
p235
S'30720'
p236
sS'protocol'
p237
S'arduino'
p238
ssS'name'
p239
S'Arduino Nano w/ ATmega328'
p240
sS'build'
p241
(dp242
S'core'
p243
S'arduino'
p244
sS'mcu'
p245
S'atmega328p'
p246
sS'f_cpu'
p247
S'16000000L'
p248
sS'variant'
p249
S'eightanaloginputs'
p250
ssaa(lp251
S'nano'
p252
a(dp253
S'bootloader'
p254
(dp255
S'extended_fuses'
p256
S'0x00'
p257
sS'high_fuses'
p258
S'0xdd'
p259
sS'low_fuses'
p260
S'0xff'
p261
sS'lock_bits'
p262
S'0x0F'
p263
sS'file'
p264
S'ATmegaBOOT_168_diecimila.hex'
p265
sS'path'
p266
S'atmega'
p267
sS'unlock_bits'
p268
S'0x3F'
p269
ssS'upload'
p270
(dp271
S'speed'
p272
S'19200'
p273
sS'maximum_size'
p274
S'14336'
p275
sS'protocol'
p276
S'arduino'
p277
ssS'name'
p278
S'Arduino Nano w/ ATmega168'
p279
sS'build'
p280
(dp281
S'core'
p282
S'arduino'
p283
sS'mcu'
p284
S'atmega168'
p285
sS'f_cpu'
p286
S'16000000L'
p287
sS'variant'
p288
S'eightanaloginputs'
p289
ssaa(lp290
S'mega2560'
p291
a(dp292
S'bootloader'
p293
(dp294
S'extended_fuses'
p295
S'0xFD'
p296
sS'high_fuses'
p297
S'0xD8'
p298
sS'low_fuses'
p299
S'0xFF'
p300
sS'lock_bits'
p301
S'0x0F'
p302
sS'file'
p303
S'stk500boot_v2_mega2560.hex'
p304
sS'path'
p305
S'stk500v2'
p306
sS'unlock_bits'
p307
S'0x3F'
p308
ssS'upload'
p309
(dp310
S'speed'
p311
S'115200'
p312
sS'maximum_size'
p313
S'258048'
p314
sS'protocol'
p315
S'wiring'
p316
ssS'name'
p317
S'Arduino Mega 2560 or Mega ADK'
p318
sS'build'
p319
(dp320
S'core'
p321
S'arduino'
p322
sS'mcu'
p323
S'atmega2560'
p324
sS'f_cpu'
p325
S'16000000L'
p326
sS'variant'
p327
S'mega'
p328
ssaa(lp329
S'mega'
p330
a(dp331
S'bootloader'
p332
(dp333
S'extended_fuses'
p334
S'0xF5'
p335
sS'high_fuses'
p336
S'0xDA'
p337
sS'low_fuses'
p338
S'0xFF'
p339
sS'lock_bits'
p340
S'0x0F'
p341
sS'file'
p342
S'ATmegaBOOT_168_atmega1280.hex'
p343
sS'path'
p344
S'atmega'
p345
sS'unlock_bits'
p346
S'0x3F'
p347
ssS'upload'
p348
(dp349
S'speed'
p350
S'57600'
p351
sS'maximum_size'
p352
S'126976'
p353
sS'protocol'
p354
S'arduino'
p355
ssS'name'
p356
S'Arduino Mega (ATmega1280)'
p357
sS'build'
p358
(dp359
S'core'
p360
S'arduino'
p361
sS'mcu'
p362
S'atmega1280'
p363
sS'f_cpu'
p364
S'16000000L'
p365
sS'variant'
p366
S'mega'
p367
ssaa(lp368
S'leonardo'
p369
a(dp370
S'bootloader'
p371
(dp372
S'extended_fuses'
p373
S'0xcb'
p374
sS'high_fuses'
p375
S'0xd8'
p376
sS'low_fuses'
p377
S'0xff'
p378
sS'lock_bits'
p379
S'0x2F'
p380
sS'file'
p381
S'Caterina-Leonardo.hex'
p382
sS'path'
p383
S'caterina'
p384
sS'unlock_bits'
p385
S'0x3F'
p386
ssS'upload'
p387
(dp388
S'speed'
p389
S'57600'
p390
sS'maximum_size'
p391
S'28672'
p392
sS'protocol'
p393
S'avr109'
p394
sS'disable_flushing'
p395
S'true'
p396
ssS'name'
p397
S'Arduino Leonardo'
p398
sS'build'
p399
(dp400
S'core'
p401
S'arduino'
p402
sS'f_cpu'
p403
S'16000000L'
p404
sS'vid'
p405
S'0x2341'
p406
sS'pid'
p407
S'0x8036'
p408
sS'variant'
p409
S'leonardo'
p410
sS'mcu'
p411
S'atmega32u4'
p412
ssaa(lp413
S'esplora'
p414
a(dp415
S'bootloader'
p416
(dp417
S'extended_fuses'
p418
S'0xcb'
p419
sS'high_fuses'
p420
S'0xd8'
p421
sS'low_fuses'
p422
S'0xff'
p423
sS'lock_bits'
p424
S'0x2F'
p425
sS'file'
p426
S'Caterina-Esplora.hex'
p427
sS'path'
p428
S'caterina'
p429
sS'unlock_bits'
p430
S'0x3F'
p431
ssS'upload'
p432
(dp433
S'speed'
p434
S'57600'
p435
sS'maximum_size'
p436
S'28672'
p437
sS'protocol'
p438
S'avr109'
p439
sS'disable_flushing'
p440
S'true'
p441
ssS'name'
p442
S'Arduino Esplora'
p443
sS'build'
p444
(dp445
S'core'
p446
S'arduino'
p447
sS'f_cpu'
p448
S'16000000L'
p449
sS'vid'
p450
S'0x2341'
p451
sS'pid'
p452
S'0x803C'
p453
sS'variant'
p454
S'leonardo'
p455
sS'mcu'
p456
S'atmega32u4'
p457
ssaa(lp458
S'micro'
p459
a(dp460
S'bootloader'
p461
(dp462
S'extended_fuses'
p463
S'0xcb'
p464
sS'high_fuses'
p465
S'0xd8'
p466
sS'low_fuses'
p467
S'0xff'
p468
sS'lock_bits'
p469
S'0x2F'
p470
sS'file'
p471
S'Caterina-Micro.hex'
p472
sS'path'
p473
S'caterina'
p474
sS'unlock_bits'
p475
S'0x3F'
p476
ssS'upload'
p477
(dp478
S'speed'
p479
S'57600'
p480
sS'maximum_size'
p481
S'28672'
p482
sS'protocol'
p483
S'avr109'
p484
sS'disable_flushing'
p485
S'true'
p486
ssS'name'
p487
S'Arduino Micro'
p488
sS'build'
p489
(dp490
S'core'
p491
S'arduino'
p492
sS'f_cpu'
p493
S'16000000L'
p494
sS'vid'
p495
S'0x2341'
p496
sS'pid'
p497
S'0x8037'
p498
sS'variant'
p499
S'micro'
p500
sS'mcu'
p501
S'atmega32u4'
p502
ssaa(lp503
S'mini328'
p504
a(dp505
S'bootloader'
p506
(dp507
S'extended_fuses'
p508
S'0x05'
p509
sS'high_fuses'
p510
S'0xd8'
p511
sS'low_fuses'
p512
S'0xff'
p513
sS'lock_bits'
p514
S'0x0F'
p515
sS'file'
p516
S'optiboot_atmega328-Mini.hex'
p517
sS'path'
p518
S'optiboot'
p519
sS'unlock_bits'
p520
S'0x3F'
p521
ssS'upload'
p522
(dp523
S'speed'
p524
S'115200'
p525
sS'maximum_size'
p526
S'28672'
p527
sS'protocol'
p528
S'arduino'
p529
ssS'name'
p530
S'Arduino Mini w/ ATmega328'
p531
sS'build'
p532
(dp533
S'core'
p534
S'arduino'
p535
sS'mcu'
p536
S'atmega328p'
p537
sS'f_cpu'
p538
S'16000000L'
p539
sS'variant'
p540
S'eightanaloginputs'
p541
ssaa(lp542
S'mini'
p543
a(dp544
S'bootloader'
p545
(dp546
S'extended_fuses'
p547
S'0x00'
p548
sS'high_fuses'
p549
S'0xdd'
p550
sS'low_fuses'
p551
S'0xff'
p552
sS'lock_bits'
p553
S'0x0F'
p554
sS'file'
p555
S'ATmegaBOOT_168_ng.hex'
p556
sS'path'
p557
S'atmega'
p558
sS'unlock_bits'
p559
S'0x3F'
p560
ssS'upload'
p561
(dp562
S'speed'
p563
S'19200'
p564
sS'maximum_size'
p565
S'14336'
p566
sS'protocol'
p567
S'arduino'
p568
ssS'name'
p569
S'Arduino Mini w/ ATmega168'
p570
sS'build'
p571
(dp572
S'core'
p573
S'arduino'
p574
sS'mcu'
p575
S'atmega168'
p576
sS'f_cpu'
p577
S'16000000L'
p578
sS'variant'
p579
S'eightanaloginputs'
p580
ssaa(lp581
S'ethernet'
p582
a(dp583
S'bootloader'
p584
(dp585
S'extended_fuses'
p586
S'0x05'
p587
sS'high_fuses'
p588
S'0xde'
p589
sS'low_fuses'
p590
S'0xff'
p591
sS'lock_bits'
p592
S'0x0F'
p593
sS'file'
p594
S'optiboot_atmega328.hex'
p595
sS'path'
p596
S'optiboot'
p597
sS'unlock_bits'
p598
S'0x3F'
p599
ssS'upload'
p600
(dp601
S'speed'
p602
S'115200'
p603
sS'maximum_size'
p604
S'32256'
p605
sS'protocol'
p606
S'arduino'
p607
ssS'name'
p608
S'Arduino Ethernet'
p609
sS'build'
p610
(dp611
S'f_cpu'
p612
S'16000000L'
p613
sS'mcu'
p614
S'atmega328p'
p615
sS'variant'
p616
S'standard'
p617
sS'core'
p618
S'arduino'
p619
ssaa(lp620
S'fio'
p621
a(dp622
S'bootloader'
p623
(dp624
S'extended_fuses'
p625
S'0x05'
p626
sS'high_fuses'
p627
S'0xDA'
p628
sS'low_fuses'
p629
S'0xFF'
p630
sS'lock_bits'
p631
S'0x0F'
p632
sS'file'
p633
S'ATmegaBOOT_168_atmega328_pro_8MHz.hex'
p634
sS'path'
p635
S'arduino:atmega'
p636
sS'unlock_bits'
p637
S'0x3F'
p638
ssS'upload'
p639
(dp640
S'speed'
p641
S'57600'
p642
sS'maximum_size'
p643
S'30720'
p644
sS'protocol'
p645
S'arduino'
p646
ssS'name'
p647
S'Arduino Fio'
p648
sS'build'
p649
(dp650
S'core'
p651
S'arduino'
p652
sS'mcu'
p653
S'atmega328p'
p654
sS'f_cpu'
p655
S'8000000L'
p656
sS'variant'
p657
S'eightanaloginputs'
p658
ssaa(lp659
S'bt328'
p660
a(dp661
S'bootloader'
p662
(dp663
S'extended_fuses'
p664
S'0x05'
p665
sS'high_fuses'
p666
S'0xd8'
p667
sS'low_fuses'
p668
S'0xff'
p669
sS'lock_bits'
p670
S'0x0F'
p671
sS'file'
p672
S'ATmegaBOOT_168_atmega328_bt.hex'
p673
sS'path'
p674
S'bt'
p675
sS'unlock_bits'
p676
S'0x3F'
p677
ssS'upload'
p678
(dp679
S'speed'
p680
S'19200'
p681
sS'maximum_size'
p682
S'28672'
p683
sS'protocol'
p684
S'arduino'
p685
sS'disable_flushing'
p686
S'true'
p687
ssS'name'
p688
S'Arduino BT w/ ATmega328'
p689
sS'build'
p690
(dp691
S'core'
p692
S'arduino'
p693
sS'mcu'
p694
S'atmega328p'
p695
sS'f_cpu'
p696
S'16000000L'
p697
sS'variant'
p698
S'eightanaloginputs'
p699
ssaa(lp700
S'bt'
p701
a(dp702
S'bootloader'
p703
(dp704
S'extended_fuses'
p705
S'0x00'
p706
sS'high_fuses'
p707
S'0xdd'
p708
sS'low_fuses'
p709
S'0xff'
p710
sS'lock_bits'
p711
S'0x0F'
p712
sS'file'
p713
S'ATmegaBOOT_168.hex'
p714
sS'path'
p715
S'bt'
p716
sS'unlock_bits'
p717
S'0x3F'
p718
ssS'upload'
p719
(dp720
S'speed'
p721
S'19200'
p722
sS'maximum_size'
p723
S'14336'
p724
sS'protocol'
p725
S'arduino'
p726
sS'disable_flushing'
p727
S'true'
p728
ssS'name'
p729
S'Arduino BT w/ ATmega168'
p730
sS'build'
p731
(dp732
S'core'
p733
S'arduino'
p734
sS'mcu'
p735
S'atmega168'
p736
sS'f_cpu'
p737
S'16000000L'
p738
sS'variant'
p739
S'eightanaloginputs'
p740
ssaa(lp741
S'LilyPadUSB'
p742
a(dp743
S'bootloader'
p744
(dp745
S'extended_fuses'
p746
S'0xce'
p747
sS'high_fuses'
p748
S'0xd8'
p749
sS'low_fuses'
p750
S'0xff'
p751
sS'lock_bits'
p752
S'0x2F'
p753
sS'file'
p754
S'Caterina-LilyPadUSB.hex'
p755
sS'path'
p756
S'caterina-LilyPadUSB'
p757
sS'unlock_bits'
p758
S'0x3F'
p759
ssS'upload'
p760
(dp761
S'speed'
p762
S'57600'
p763
sS'maximum_size'
p764
S'28672'
p765
sS'protocol'
p766
S'avr109'
p767
sS'disable_flushing'
p768
S'true'
p769
ssS'name'
p770
S'LilyPad Arduino USB'
p771
sS'build'
p772
(dp773
S'core'
p774
S'arduino'
p775
sS'f_cpu'
p776
S'8000000L'
p777
sS'vid'
p778
S'0x1B4F'
p779
sS'pid'
p780
S'0x9208'
p781
sS'variant'
p782
S'leonardo'
p783
sS'mcu'
p784
S'atmega32u4'
p785
ssaa(lp786
S'lilypad328'
p787
a(dp788
S'bootloader'
p789
(dp790
S'extended_fuses'
p791
S'0x05'
p792
sS'high_fuses'
p793
S'0xDA'
p794
sS'low_fuses'
p795
S'0xFF'
p796
sS'lock_bits'
p797
S'0x0F'
p798
sS'file'
p799
S'ATmegaBOOT_168_atmega328_pro_8MHz.hex'
p800
sS'path'
p801
S'atmega'
p802
sS'unlock_bits'
p803
S'0x3F'
p804
ssS'upload'
p805
(dp806
S'speed'
p807
S'57600'
p808
sS'maximum_size'
p809
S'30720'
p810
sS'protocol'
p811
S'arduino'
p812
ssS'name'
p813
S'LilyPad Arduino w/ ATmega328'
p814
sS'build'
p815
(dp816
S'core'
p817
S'arduino'
p818
sS'mcu'
p819
S'atmega328p'
p820
sS'f_cpu'
p821
S'8000000L'
p822
sS'variant'
p823
S'standard'
p824
ssaa(lp825
S'lilypad'
p826
a(dp827
S'bootloader'
p828
(dp829
S'extended_fuses'
p830
S'0x00'
p831
sS'high_fuses'
p832
S'0xdd'
p833
sS'low_fuses'
p834
S'0xe2'
p835
sS'lock_bits'
p836
S'0x0F'
p837
sS'file'
p838
S'LilyPadBOOT_168.hex'
p839
sS'path'
p840
S'lilypad'
p841
sS'unlock_bits'
p842
S'0x3F'
p843
ssS'upload'
p844
(dp845
S'speed'
p846
S'19200'
p847
sS'maximum_size'
p848
S'14336'
p849
sS'protocol'
p850
S'arduino'
p851
ssS'name'
p852
S'LilyPad Arduino w/ ATmega168'
p853
sS'build'
p854
(dp855
S'core'
p856
S'arduino'
p857
sS'mcu'
p858
S'atmega168'
p859
sS'f_cpu'
p860
S'8000000L'
p861
sS'variant'
p862
S'standard'
p863
ssaa(lp864
S'pro5v328'
p865
a(dp866
S'bootloader'
p867
(dp868
S'extended_fuses'
p869
S'0x05'
p870
sS'high_fuses'
p871
S'0xDA'
p872
sS'low_fuses'
p873
S'0xFF'
p874
sS'lock_bits'
p875
S'0x0F'
p876
sS'file'
p877
S'ATmegaBOOT_168_atmega328.hex'
p878
sS'path'
p879
S'atmega'
p880
sS'unlock_bits'
p881
S'0x3F'
p882
ssS'upload'
p883
(dp884
S'speed'
p885
S'57600'
p886
sS'maximum_size'
p887
S'30720'
p888
sS'protocol'
p889
S'arduino'
p890
ssS'name'
p891
S'Arduino Pro or Pro Mini (5V, 16 MHz) w/ ATmega328'
p892
sS'build'
p893
(dp894
S'core'
p895
S'arduino'
p896
sS'mcu'
p897
S'atmega328p'
p898
sS'f_cpu'
p899
S'16000000L'
p900
sS'variant'
p901
S'standard'
p902
ssaa(lp903
S'pro5v'
p904
a(dp905
S'bootloader'
p906
(dp907
S'extended_fuses'
p908
S'0x00'
p909
sS'high_fuses'
p910
S'0xdd'
p911
sS'low_fuses'
p912
S'0xff'
p913
sS'lock_bits'
p914
S'0x0F'
p915
sS'file'
p916
S'ATmegaBOOT_168_diecimila.hex'
p917
sS'path'
p918
S'atmega'
p919
sS'unlock_bits'
p920
S'0x3F'
p921
ssS'upload'
p922
(dp923
S'speed'
p924
S'19200'
p925
sS'maximum_size'
p926
S'14336'
p927
sS'protocol'
p928
S'arduino'
p929
ssS'name'
p930
S'Arduino Pro or Pro Mini (5V, 16 MHz) w/ ATmega168'
p931
sS'build'
p932
(dp933
S'core'
p934
S'arduino'
p935
sS'mcu'
p936
S'atmega168'
p937
sS'f_cpu'
p938
S'16000000L'
p939
sS'variant'
p940
S'standard'
p941
ssaa(lp942
S'pro328'
p943
a(dp944
S'bootloader'
p945
(dp946
S'extended_fuses'
p947
S'0x05'
p948
sS'high_fuses'
p949
S'0xDA'
p950
sS'low_fuses'
p951
S'0xFF'
p952
sS'lock_bits'
p953
S'0x0F'
p954
sS'file'
p955
S'ATmegaBOOT_168_atmega328_pro_8MHz.hex'
p956
sS'path'
p957
S'atmega'
p958
sS'unlock_bits'
p959
S'0x3F'
p960
ssS'upload'
p961
(dp962
S'speed'
p963
S'57600'
p964
sS'maximum_size'
p965
S'30720'
p966
sS'protocol'
p967
S'arduino'
p968
ssS'name'
p969
S'Arduino Pro or Pro Mini (3.3V, 8 MHz) w/ ATmega328'
p970
sS'build'
p971
(dp972
S'core'
p973
S'arduino'
p974
sS'mcu'
p975
S'atmega328p'
p976
sS'f_cpu'
p977
S'8000000L'
p978
sS'variant'
p979
S'standard'
p980
ssaa(lp981
S'pro'
p982
a(dp983
S'bootloader'
p984
(dp985
S'extended_fuses'
p986
S'0x00'
p987
sS'high_fuses'
p988
S'0xdd'
p989
sS'low_fuses'
p990
S'0xc6'
p991
sS'lock_bits'
p992
S'0x0F'
p993
sS'file'
p994
S'ATmegaBOOT_168_pro_8MHz.hex'
p995
sS'path'
p996
S'atmega'
p997
sS'unlock_bits'
p998
S'0x3F'
p999
ssS'upload'
p1000
(dp1001
S'speed'
p1002
S'19200'
p1003
sS'maximum_size'
p1004
S'14336'
p1005
sS'protocol'
p1006
S'arduino'
p1007
ssS'name'
p1008
S'Arduino Pro or Pro Mini (3.3V, 8 MHz) w/ ATmega168'
p1009
sS'build'
p1010
(dp1011
S'core'
p1012
S'arduino'
p1013
sS'mcu'
p1014
S'atmega168'
p1015
sS'f_cpu'
p1016
S'8000000L'
p1017
sS'variant'
p1018
S'standard'
p1019
ssaa(lp1020
S'atmega168'
p1021
a(dp1022
S'bootloader'
p1023
(dp1024
S'extended_fuses'
p1025
S'0x00'
p1026
sS'high_fuses'
p1027
S'0xdd'
p1028
sS'low_fuses'
p1029
S'0xff'
p1030
sS'lock_bits'
p1031
S'0x0F'
p1032
sS'file'
p1033
S'ATmegaBOOT_168_ng.hex'
p1034
sS'path'
p1035
S'atmega'
p1036
sS'unlock_bits'
p1037
S'0x3F'
p1038
ssS'upload'
p1039
(dp1040
S'speed'
p1041
S'19200'
p1042
sS'maximum_size'
p1043
S'14336'
p1044
sS'protocol'
p1045
S'arduino'
p1046
ssS'name'
p1047
S'Arduino NG or older w/ ATmega168'
p1048
sS'build'
p1049
(dp1050
S'core'
p1051
S'arduino'
p1052
sS'mcu'
p1053
S'atmega168'
p1054
sS'f_cpu'
p1055
S'16000000L'
p1056
sS'variant'
p1057
S'standard'
p1058
ssaa(lp1059
S'atmega8'
p1060
a(dp1061
S'bootloader'
p1062
(dp1063
S'high_fuses'
p1064
S'0xca'
p1065
sS'low_fuses'
p1066
S'0xdf'
p1067
sS'lock_bits'
p1068
S'0x0F'
p1069
sS'file'
p1070
S'ATmegaBOOT-prod-firmware-2009-11-07.hex'
p1071
sS'path'
p1072
S'atmega8'
p1073
sS'unlock_bits'
p1074
S'0x3F'
p1075
ssS'upload'
p1076
(dp1077
S'speed'
p1078
S'19200'
p1079
sS'maximum_size'
p1080
S'7168'
p1081
sS'protocol'
p1082
S'arduino'
p1083
ssS'name'
p1084
S'Arduino NG or older w/ ATmega8'
p1085
sS'build'
p1086
(dp1087
S'core'
p1088
S'arduino'
p1089
sS'mcu'
p1090
S'atmega8'
p1091
sS'f_cpu'
p1092
S'16000000L'
p1093
sS'variant'
p1094
S'standard'
p1095
ssaatp1096
Rp1097
(dp1098
S'default'
p1099
S'uno'
p1100
sbtp1101
a(S'ldflags'
p1102
g2
(g3
g4
(lp1103
g6
aS'-Wl,-Os'
p1104
aS'-Wl,--gc-sections'
p1105
atp1106
Rp1107
tp1108
a.